target datalayout = "e-m:e-p270:32:32-p271:32:32-p272:64:64-i64:64-i128:128-f80:128-n8:16:32:64-S128"
target triple = "x86_64-pc-linux-gnu"

%struct.nghttp2_session = type { %struct.nghttp2_map, %struct.nghttp2_outbound_queue, %struct.nghttp2_outbound_queue, %struct.nghttp2_outbound_queue, [8 x %struct.anon], %struct.nghttp2_active_outbound_item, %struct.nghttp2_inbound_frame, %struct.nghttp2_hd_deflater, %struct.nghttp2_hd_inflater, %struct.nghttp2_session_callbacks, %struct.nghttp2_mem, ptr, ptr, %struct.nghttp2_ratelim, i64, i64, i64, i64, i64, i64, i64, i64, i64, i64, i64, i64, i64, i64, i32, i32, i32, i32, i32, i32, i32, i32, i32, i32, i32, i32, i8, %struct.nghttp2_settings_storage, %struct.nghttp2_settings_storage, i32, i32, i32, i8, i8, i8, i8, i8, i8, [32 x i8] }
%struct.nghttp2_map = type { ptr, ptr, i64, i64 }
%struct.nghttp2_outbound_queue = type { ptr, ptr, i64 }
%struct.anon = type { %struct.nghttp2_pq }
%struct.nghttp2_pq = type { ptr, ptr, i64, i64, ptr }
%struct.nghttp2_active_outbound_item = type { ptr, %struct.nghttp2_bufs, i32 }
%struct.nghttp2_bufs = type { ptr, ptr, ptr, i64, i64, i64, i64, i64 }
%struct.nghttp2_inbound_frame = type { %union.nghttp2_frame, %union.nghttp2_ext_frame_payload, ptr, %struct.nghttp2_buf, %struct.nghttp2_buf, ptr, i64, i64, i64, i64, i32, [32 x i8] }
%union.nghttp2_frame = type { %struct.nghttp2_headers }
%struct.nghttp2_headers = type { %struct.nghttp2_frame_hd, i64, %struct.nghttp2_priority_spec, ptr, i64, i32 }
%struct.nghttp2_frame_hd = type { i64, i32, i8, i8, i8 }
%struct.nghttp2_priority_spec = type { i32, i32, i8 }
%union.nghttp2_ext_frame_payload = type { %struct.nghttp2_ext_altsvc }
%struct.nghttp2_ext_altsvc = type { ptr, i64, ptr, i64 }
%struct.nghttp2_buf = type { ptr, ptr, ptr, ptr, ptr }
%struct.nghttp2_hd_deflater = type { %struct.nghttp2_hd_context, %struct.nghttp2_hd_map, i64, i64, i8 }
%struct.nghttp2_hd_context = type { %struct.nghttp2_hd_ringbuf, ptr, i64, i64, i32, i8 }
%struct.nghttp2_hd_ringbuf = type { ptr, i64, i64, i64 }
%struct.nghttp2_hd_map = type { [128 x ptr] }
%struct.nghttp2_hd_inflater = type { %struct.nghttp2_hd_context, %struct.nghttp2_hd_huff_decode_context, %struct.nghttp2_buf, %struct.nghttp2_buf, ptr, ptr, ptr, ptr, i64, i64, i64, i64, i64, i32, i32, i8, i8, i8 }
%struct.nghttp2_hd_huff_decode_context = type { i16 }
%struct.nghttp2_session_callbacks = type { ptr, ptr, ptr, ptr, ptr, ptr, ptr, ptr, ptr, ptr, ptr, ptr, ptr, ptr, ptr, ptr, ptr, ptr, ptr, ptr, ptr, ptr, ptr, ptr, ptr, ptr, ptr, ptr }
%struct.nghttp2_mem = type { ptr, ptr, ptr, ptr, ptr }
%struct.nghttp2_ratelim = type { i64, i64, i64, i64 }
%struct.nghttp2_settings_storage = type { i32, i32, i32, i32, i32, i32, i32, i32 }
%struct.nghttp2_settings_entry = type { i32, i32 }
%struct.nghttp2_update_window_size_arg = type { ptr, i32, i32 }

; Function Attrs: nounwind uwtable
define internal i32 @session_update_local_initial_window_size(ptr noundef %0, i32 noundef %1, i32 noundef %2) #0 {
  %4 = alloca ptr, align 8
  %5 = alloca i32, align 4
  %6 = alloca i32, align 4
  %7 = alloca %struct.nghttp2_update_window_size_arg, align 8
  store ptr %0, ptr %4, align 8, !tbaa !7
  store i32 %1, ptr %5, align 4, !tbaa !3
  store i32 %2, ptr %6, align 4, !tbaa !3
  call void @llvm.lifetime.start.p0(i64 16, ptr %7) #10
  %8 = load ptr, ptr %4, align 8, !tbaa !7
  %9 = getelementptr inbounds nuw %struct.nghttp2_update_window_size_arg, ptr %7, i32 0, i32 0
  store ptr %8, ptr %9, align 8, !tbaa !183
  %10 = load i32, ptr %5, align 4, !tbaa !3
  %11 = getelementptr inbounds nuw %struct.nghttp2_update_window_size_arg, ptr %7, i32 0, i32 1
  store i32 %10, ptr %11, align 8, !tbaa !185
  %12 = load i32, ptr %6, align 4, !tbaa !3
  %13 = getelementptr inbounds nuw %struct.nghttp2_update_window_size_arg, ptr %7, i32 0, i32 2
  store i32 %12, ptr %13, align 4, !tbaa !186
  %14 = load ptr, ptr %4, align 8, !tbaa !7
  %15 = getelementptr inbounds nuw %struct.nghttp2_session, ptr %14, i32 0, i32 0
  %16 = call i32 @nghttp2_map_each(ptr noundef %15, ptr noundef @update_local_initial_window_size_func, ptr noundef %7)
  call void @llvm.lifetime.end.p0(i64 16, ptr %7) #10
  ret i32 %16
}

; Function Attrs: inlinehint nounwind uwtable
define internal i32 @nghttp2_min_uint32(i32 noundef %0, i32 noundef %1) #4 {
  %3 = alloca i32, align 4
  %4 = alloca i32, align 4
  store i32 %0, ptr %3, align 4, !tbaa !3
  store i32 %1, ptr %4, align 4, !tbaa !3
  %5 = load i32, ptr %3, align 4, !tbaa !3
  %6 = load i32, ptr %4, align 4, !tbaa !3
  %7 = icmp ult i32 %5, %6
  br i1 %7, label %8, label %10

8:                                                ; preds = %2
  %9 = load i32, ptr %3, align 4, !tbaa !3
  br label %12

10:                                               ; preds = %2
  %11 = load i32, ptr %4, align 4, !tbaa !3
  br label %12

12:                                               ; preds = %10, %8
  %13 = phi i32 [ %9, %8 ], [ %11, %10 ]
  ret i32 %13
}

; Function Attrs: nounwind uwtable
define hidden i32 @nghttp2_session_update_local_settings(ptr noundef %0, ptr noundef %1, i64 noundef %2) #0 {
  %4 = alloca i32, align 4
  %5 = alloca ptr, align 8
  %6 = alloca ptr, align 8
  %7 = alloca i64, align 8
  %8 = alloca i32, align 4
  %9 = alloca i64, align 8
  %10 = alloca i32, align 4
  %11 = alloca i32, align 4
  %12 = alloca i32, align 4
  %13 = alloca i8, align 1
  %14 = alloca i32, align 4
  store ptr %0, ptr %5, align 8, !tbaa !7
  store ptr %1, ptr %6, align 8, !tbaa !53
  store i64 %2, ptr %7, align 8, !tbaa !41
  call void @llvm.lifetime.start.p0(i64 4, ptr %8) #10
  call void @llvm.lifetime.start.p0(i64 8, ptr %9) #10
  call void @llvm.lifetime.start.p0(i64 4, ptr %10) #10
  store i32 -1, ptr %10, align 4, !tbaa !3
  call void @llvm.lifetime.start.p0(i64 4, ptr %11) #10
  store i32 0, ptr %11, align 4, !tbaa !3
  call void @llvm.lifetime.start.p0(i64 4, ptr %12) #10
  store i32 -1, ptr %12, align 4, !tbaa !3
  call void @llvm.lifetime.start.p0(i64 1, ptr %13) #10
  store i8 0, ptr %13, align 1, !tbaa !117
  store i64 0, ptr %9, align 8, !tbaa !41
  br label %15

15:                                               ; preds = %45, %3
  %16 = load i64, ptr %9, align 8, !tbaa !41
  %17 = load i64, ptr %7, align 8, !tbaa !41
  %18 = icmp ult i64 %16, %17
  br i1 %18, label %19, label %48

19:                                               ; preds = %15
  %20 = load ptr, ptr %6, align 8, !tbaa !53
  %21 = load i64, ptr %9, align 8, !tbaa !41
  %22 = getelementptr inbounds nuw %struct.nghttp2_settings_entry, ptr %20, i64 %21
  %23 = getelementptr inbounds nuw %struct.nghttp2_settings_entry, ptr %22, i32 0, i32 0
  %24 = load i32, ptr %23, align 4, !tbaa !172
  switch i32 %24, label %44 [
    i32 1, label %25
    i32 4, label %38
  ]

25:                                               ; preds = %19
  store i8 1, ptr %13, align 1, !tbaa !117
  %26 = load ptr, ptr %6, align 8, !tbaa !53
  %27 = load i64, ptr %9, align 8, !tbaa !41
  %28 = getelementptr inbounds nuw %struct.nghttp2_settings_entry, ptr %26, i64 %27
  %29 = getelementptr inbounds nuw %struct.nghttp2_settings_entry, ptr %28, i32 0, i32 1
  %30 = load i32, ptr %29, align 4, !tbaa !174
  store i32 %30, ptr %11, align 4, !tbaa !3
  %31 = load i32, ptr %12, align 4, !tbaa !3
  %32 = load ptr, ptr %6, align 8, !tbaa !53
  %33 = load i64, ptr %9, align 8, !tbaa !41
  %34 = getelementptr inbounds nuw %struct.nghttp2_settings_entry, ptr %32, i64 %33
  %35 = getelementptr inbounds nuw %struct.nghttp2_settings_entry, ptr %34, i32 0, i32 1
  %36 = load i32, ptr %35, align 4, !tbaa !174
  %37 = call i32 @nghttp2_min_uint32(i32 noundef %31, i32 noundef %36)
  store i32 %37, ptr %12, align 4, !tbaa !3
  br label %44

38:                                               ; preds = %19
  %39 = load ptr, ptr %6, align 8, !tbaa !53
  %40 = load i64, ptr %9, align 8, !tbaa !41
  %41 = getelementptr inbounds nuw %struct.nghttp2_settings_entry, ptr %39, i64 %40
  %42 = getelementptr inbounds nuw %struct.nghttp2_settings_entry, ptr %41, i32 0, i32 1
  %43 = load i32, ptr %42, align 4, !tbaa !174
  store i32 %43, ptr %10, align 4, !tbaa !3
  br label %44

44:                                               ; preds = %19, %38, %25
  br label %45

45:                                               ; preds = %44
  %46 = load i64, ptr %9, align 8, !tbaa !41
  %47 = add i64 %46, 1
  store i64 %47, ptr %9, align 8, !tbaa !41
  br label %15, !llvm.loop !175

48:                                               ; preds = %15
  %49 = load i8, ptr %13, align 1, !tbaa !117
  %50 = icmp ne i8 %49, 0
  br i1 %50, label %51, label %77

51:                                               ; preds = %48
  %52 = load i32, ptr %12, align 4, !tbaa !3
  %53 = load i32, ptr %11, align 4, !tbaa !3
  %54 = icmp ult i32 %52, %53
  br i1 %54, label %55, label %66

55:                                               ; preds = %51
  %56 = load ptr, ptr %5, align 8, !tbaa !7
  %57 = getelementptr inbounds nuw %struct.nghttp2_session, ptr %56, i32 0, i32 8
  %58 = load i32, ptr %12, align 4, !tbaa !3
  %59 = zext i32 %58 to i64
  %60 = call i32 @nghttp2_hd_inflate_change_table_size(ptr noundef %57, i64 noundef %59)
  store i32 %60, ptr %8, align 4, !tbaa !3
  %61 = load i32, ptr %8, align 4, !tbaa !3
  %62 = icmp ne i32 %61, 0
  br i1 %62, label %63, label %65

63:                                               ; preds = %55
  %64 = load i32, ptr %8, align 4, !tbaa !3
  store i32 %64, ptr %4, align 4
  store i32 1, ptr %14, align 4
  br label %181

65:                                               ; preds = %55
  br label %66

66:                                               ; preds = %65, %51
  %67 = load ptr, ptr %5, align 8, !tbaa !7
  %68 = getelementptr inbounds nuw %struct.nghttp2_session, ptr %67, i32 0, i32 8
  %69 = load i32, ptr %11, align 4, !tbaa !3
  %70 = zext i32 %69 to i64
  %71 = call i32 @nghttp2_hd_inflate_change_table_size(ptr noundef %68, i64 noundef %70)
  store i32 %71, ptr %8, align 4, !tbaa !3
  %72 = load i32, ptr %8, align 4, !tbaa !3
  %73 = icmp ne i32 %72, 0
  br i1 %73, label %74, label %76

74:                                               ; preds = %66
  %75 = load i32, ptr %8, align 4, !tbaa !3
  store i32 %75, ptr %4, align 4
  store i32 1, ptr %14, align 4
  br label %181

76:                                               ; preds = %66
  br label %77

77:                                               ; preds = %76, %48
  %78 = load i32, ptr %10, align 4, !tbaa !3
  %79 = icmp ne i32 %78, -1
  br i1 %79, label %80, label %93

80:                                               ; preds = %77
  %81 = load ptr, ptr %5, align 8, !tbaa !7
  %82 = load i32, ptr %10, align 4, !tbaa !3
  %83 = load ptr, ptr %5, align 8, !tbaa !7
  %84 = getelementptr inbounds nuw %struct.nghttp2_session, ptr %83, i32 0, i32 42
  %85 = getelementptr inbounds nuw %struct.nghttp2_settings_storage, ptr %84, i32 0, i32 3
  %86 = load i32, ptr %85, align 4, !tbaa !131
  %87 = call i32 @session_update_local_initial_window_size(ptr noundef %81, i32 noundef %82, i32 noundef %86)
  store i32 %87, ptr %8, align 4, !tbaa !3
  %88 = load i32, ptr %8, align 4, !tbaa !3
  %89 = icmp ne i32 %88, 0
  br i1 %89, label %90, label %92

90:                                               ; preds = %80
  %91 = load i32, ptr %8, align 4, !tbaa !3
  store i32 %91, ptr %4, align 4
  store i32 1, ptr %14, align 4
  br label %181

92:                                               ; preds = %80
  br label %93

93:                                               ; preds = %92, %77
  store i64 0, ptr %9, align 8, !tbaa !41
  br label %94

94:                                               ; preds = %177, %93
  %95 = load i64, ptr %9, align 8, !tbaa !41
  %96 = load i64, ptr %7, align 8, !tbaa !41
  %97 = icmp ult i64 %95, %96
  br i1 %97, label %98, label %180

98:                                               ; preds = %94
  %99 = load ptr, ptr %6, align 8, !tbaa !53
  %100 = load i64, ptr %9, align 8, !tbaa !41
  %101 = getelementptr inbounds nuw %struct.nghttp2_settings_entry, ptr %99, i64 %100
  %102 = getelementptr inbounds nuw %struct.nghttp2_settings_entry, ptr %101, i32 0, i32 0
  %103 = load i32, ptr %102, align 4, !tbaa !172
  switch i32 %103, label %176 [
    i32 1, label %104
    i32 2, label %113
    i32 3, label %122
    i32 4, label %131
    i32 5, label %140
    i32 6, label %149
    i32 8, label %158
    i32 9, label %167
  ]

104:                                              ; preds = %98
  %105 = load ptr, ptr %6, align 8, !tbaa !53
  %106 = load i64, ptr %9, align 8, !tbaa !41
  %107 = getelementptr inbounds nuw %struct.nghttp2_settings_entry, ptr %105, i64 %106
  %108 = getelementptr inbounds nuw %struct.nghttp2_settings_entry, ptr %107, i32 0, i32 1
  %109 = load i32, ptr %108, align 4, !tbaa !174
  %110 = load ptr, ptr %5, align 8, !tbaa !7
  %111 = getelementptr inbounds nuw %struct.nghttp2_session, ptr %110, i32 0, i32 42
  %112 = getelementptr inbounds nuw %struct.nghttp2_settings_storage, ptr %111, i32 0, i32 0
  store i32 %109, ptr %112, align 4, !tbaa !176
  br label %176

113:                                              ; preds = %98
  %114 = load ptr, ptr %6, align 8, !tbaa !53
  %115 = load i64, ptr %9, align 8, !tbaa !41
  %116 = getelementptr inbounds nuw %struct.nghttp2_settings_entry, ptr %114, i64 %115
  %117 = getelementptr inbounds nuw %struct.nghttp2_settings_entry, ptr %116, i32 0, i32 1
  %118 = load i32, ptr %117, align 4, !tbaa !174
  %119 = load ptr, ptr %5, align 8, !tbaa !7
  %120 = getelementptr inbounds nuw %struct.nghttp2_session, ptr %119, i32 0, i32 42
  %121 = getelementptr inbounds nuw %struct.nghttp2_settings_storage, ptr %120, i32 0, i32 1
  store i32 %118, ptr %121, align 4, !tbaa !177
  br label %176

122:                                              ; preds = %98
  %123 = load ptr, ptr %6, align 8, !tbaa !53
  %124 = load i64, ptr %9, align 8, !tbaa !41
  %125 = getelementptr inbounds nuw %struct.nghttp2_settings_entry, ptr %123, i64 %124
  %126 = getelementptr inbounds nuw %struct.nghttp2_settings_entry, ptr %125, i32 0, i32 1
  %127 = load i32, ptr %126, align 4, !tbaa !174
  %128 = load ptr, ptr %5, align 8, !tbaa !7
  %129 = getelementptr inbounds nuw %struct.nghttp2_session, ptr %128, i32 0, i32 42
  %130 = getelementptr inbounds nuw %struct.nghttp2_settings_storage, ptr %129, i32 0, i32 2
  store i32 %127, ptr %130, align 4, !tbaa !168
  br label %176

131:                                              ; preds = %98
  %132 = load ptr, ptr %6, align 8, !tbaa !53
  %133 = load i64, ptr %9, align 8, !tbaa !41
  %134 = getelementptr inbounds nuw %struct.nghttp2_settings_entry, ptr %132, i64 %133
  %135 = getelementptr inbounds nuw %struct.nghttp2_settings_entry, ptr %134, i32 0, i32 1
  %136 = load i32, ptr %135, align 4, !tbaa !174
  %137 = load ptr, ptr %5, align 8, !tbaa !7
  %138 = getelementptr inbounds nuw %struct.nghttp2_session, ptr %137, i32 0, i32 42
  %139 = getelementptr inbounds nuw %struct.nghttp2_settings_storage, ptr %138, i32 0, i32 3
  store i32 %136, ptr %139, align 4, !tbaa !131
  br label %176

140:                                              ; preds = %98
  %141 = load ptr, ptr %6, align 8, !tbaa !53
  %142 = load i64, ptr %9, align 8, !tbaa !41
  %143 = getelementptr inbounds nuw %struct.nghttp2_settings_entry, ptr %141, i64 %142
  %144 = getelementptr inbounds nuw %struct.nghttp2_settings_entry, ptr %143, i32 0, i32 1
  %145 = load i32, ptr %144, align 4, !tbaa !174
  %146 = load ptr, ptr %5, align 8, !tbaa !7
  %147 = getelementptr inbounds nuw %struct.nghttp2_session, ptr %146, i32 0, i32 42
  %148 = getelementptr inbounds nuw %struct.nghttp2_settings_storage, ptr %147, i32 0, i32 4
  store i32 %145, ptr %148, align 4, !tbaa !178
  br label %176

149:                                              ; preds = %98
  %150 = load ptr, ptr %6, align 8, !tbaa !53
  %151 = load i64, ptr %9, align 8, !tbaa !41
  %152 = getelementptr inbounds nuw %struct.nghttp2_settings_entry, ptr %150, i64 %151
  %153 = getelementptr inbounds nuw %struct.nghttp2_settings_entry, ptr %152, i32 0, i32 1
  %154 = load i32, ptr %153, align 4, !tbaa !174
  %155 = load ptr, ptr %5, align 8, !tbaa !7
  %156 = getelementptr inbounds nuw %struct.nghttp2_session, ptr %155, i32 0, i32 42
  %157 = getelementptr inbounds nuw %struct.nghttp2_settings_storage, ptr %156, i32 0, i32 5
  store i32 %154, ptr %157, align 4, !tbaa !179
  br label %176

158:                                              ; preds = %98
  %159 = load ptr, ptr %6, align 8, !tbaa !53
  %160 = load i64, ptr %9, align 8, !tbaa !41
  %161 = getelementptr inbounds nuw %struct.nghttp2_settings_entry, ptr %159, i64 %160
  %162 = getelementptr inbounds nuw %struct.nghttp2_settings_entry, ptr %161, i32 0, i32 1
  %163 = load i32, ptr %162, align 4, !tbaa !174
  %164 = load ptr, ptr %5, align 8, !tbaa !7
  %165 = getelementptr inbounds nuw %struct.nghttp2_session, ptr %164, i32 0, i32 42
  %166 = getelementptr inbounds nuw %struct.nghttp2_settings_storage, ptr %165, i32 0, i32 6
  store i32 %163, ptr %166, align 4, !tbaa !180
  br label %176

167:                                              ; preds = %98
  %168 = load ptr, ptr %6, align 8, !tbaa !53
  %169 = load i64, ptr %9, align 8, !tbaa !41
  %170 = getelementptr inbounds nuw %struct.nghttp2_settings_entry, ptr %168, i64 %169
  %171 = getelementptr inbounds nuw %struct.nghttp2_settings_entry, ptr %170, i32 0, i32 1
  %172 = load i32, ptr %171, align 4, !tbaa !174
  %173 = load ptr, ptr %5, align 8, !tbaa !7
  %174 = getelementptr inbounds nuw %struct.nghttp2_session, ptr %173, i32 0, i32 42
  %175 = getelementptr inbounds nuw %struct.nghttp2_settings_storage, ptr %174, i32 0, i32 7
  store i32 %172, ptr %175, align 4, !tbaa !181
  br label %176

176:                                              ; preds = %98, %167, %158, %149, %140, %131, %122, %113, %104
  br label %177

177:                                              ; preds = %176
  %178 = load i64, ptr %9, align 8, !tbaa !41
  %179 = add i64 %178, 1
  store i64 %179, ptr %9, align 8, !tbaa !41
  br label %94, !llvm.loop !182

180:                                              ; preds = %94
  store i32 0, ptr %4, align 4
  store i32 1, ptr %14, align 4
  br label %181

181:                                              ; preds = %180, %90, %74, %63
  call void @llvm.lifetime.end.p0(i64 1, ptr %13) #10
  call void @llvm.lifetime.end.p0(i64 4, ptr %12) #10
  call void @llvm.lifetime.end.p0(i64 4, ptr %11) #10
  call void @llvm.lifetime.end.p0(i64 4, ptr %10) #10
  call void @llvm.lifetime.end.p0(i64 8, ptr %9) #10
  call void @llvm.lifetime.end.p0(i64 4, ptr %8) #10
  %182 = load i32, ptr %4, align 4
  ret i32 %182
}