; Function Attrs: nounwind uwtable
define hidden i32 @nghttp2_session_update_local_settings(ptr noundef %0, ptr noundef readonly captures(none) %1, i64 noundef %2) local_unnamed_addr #1 {
  %4 = alloca %struct.nghttp2_update_window_size_arg, align 8
  %.not86 = icmp eq i64 %2, 0
  br i1 %.not86, label %.loopexit, label %.lr.ph.outer

.lr.ph.outer:                                     ; preds = %3, %.thread
  %5 = phi i1 [ false, %.thread ], [ true, %3 ]
  %.05878.ph = phi i32 [ %15, %.thread ], [ -1, %3 ]
  %.06077.ph = phi i32 [ %14, %.thread ], [ 0, %3 ]
  %.06276.ph = phi i32 [ %.06276, %.thread ], [ -1, %3 ]
  %.06475.ph = phi i64 [ %16, %.thread ], [ 0, %3 ]
  br label %.lr.ph

.lr.ph:                                           ; preds = %.lr.ph.outer, %11
  %.06276 = phi i32 [ %.163, %11 ], [ %.06276.ph, %.lr.ph.outer ]
  %.06475 = phi i64 [ %12, %11 ], [ %.06475.ph, %.lr.ph.outer ]
  %6 = getelementptr inbounds nuw %struct.nghttp2_settings_entry, ptr %1, i64 %.06475
  %7 = load i32, ptr %6, align 4, !tbaa !178
  switch i32 %7, label %11 [
    i32 1, label %.thread
    i32 4, label %8
  ]

8:                                                ; preds = %.lr.ph
  %9 = getelementptr inbounds nuw i8, ptr %6, i64 4
  %10 = load i32, ptr %9, align 4, !tbaa !180
  br label %11

11:                                               ; preds = %.lr.ph, %8
  %.163 = phi i32 [ %.06276, %.lr.ph ], [ %10, %8 ]
  %12 = add nuw i64 %.06475, 1
  %exitcond.not = icmp eq i64 %12, %2
  br i1 %exitcond.not, label %._crit_edge, label %.lr.ph, !llvm.loop !181

.thread:                                          ; preds = %.lr.ph
  %13 = getelementptr inbounds nuw i8, ptr %6, i64 4
  %14 = load i32, ptr %13, align 4, !tbaa !180
  %15 = tail call noundef i32 @llvm.umin.i32(i32 %.05878.ph, i32 %14)
  %16 = add nuw i64 %.06475, 1
  %exitcond.not98 = icmp eq i64 %16, %2
  br i1 %exitcond.not98, label %._crit_edge.thread103, label %.lr.ph.outer, !llvm.loop !181

._crit_edge:                                      ; preds = %11
  br i1 %5, label %26, label %._crit_edge.thread103

._crit_edge.thread103:                            ; preds = %.thread, %._crit_edge
  %.16399110 = phi i32 [ %.163, %._crit_edge ], [ %.06276, %.thread ]
  %.161100109 = phi i32 [ %.06077.ph, %._crit_edge ], [ %14, %.thread ]
  %.159101108 = phi i32 [ %.05878.ph, %._crit_edge ], [ %15, %.thread ]
  %17 = icmp ult i32 %.159101108, %.161100109
  br i1 %17, label %18, label %22

18:                                               ; preds = %._crit_edge.thread103
  %19 = getelementptr inbounds nuw i8, ptr %0, i64 1880
  %20 = zext i32 %.159101108 to i64
  %21 = tail call i32 @nghttp2_hd_inflate_change_table_size(ptr noundef nonnull %19, i64 noundef %20) #16
  %.not71 = icmp eq i32 %21, 0
  br i1 %.not71, label %22, label %.loopexit

22:                                               ; preds = %18, %._crit_edge.thread103
  %23 = getelementptr inbounds nuw i8, ptr %0, i64 1880
  %24 = zext i32 %.161100109 to i64
  %25 = tail call i32 @nghttp2_hd_inflate_change_table_size(ptr noundef nonnull %23, i64 noundef %24) #16
  %.not72 = icmp eq i32 %25, 0
  br i1 %.not72, label %26, label %.loopexit

26:                                               ; preds = %22, %._crit_edge
  %.062.lcssa93 = phi i32 [ %.16399110, %22 ], [ %.163, %._crit_edge ]
  %.not73 = icmp eq i32 %.062.lcssa93, -1
  br i1 %.not73, label %.lr.ph85, label %27

27:                                               ; preds = %26
  %28 = getelementptr inbounds nuw i8, ptr %0, i64 2640
  %29 = load i32, ptr %28, align 4, !tbaa !123
  call void @llvm.lifetime.start.p0(i64 16, ptr nonnull %4) #16
  store ptr %0, ptr %4, align 8, !tbaa !182
  %30 = getelementptr inbounds nuw i8, ptr %4, i64 8
  store i32 %.062.lcssa93, ptr %30, align 8, !tbaa !184
  %31 = getelementptr inbounds nuw i8, ptr %4, i64 12
  store i32 %29, ptr %31, align 4, !tbaa !185
  %32 = call i32 @nghttp2_map_each(ptr noundef %0, ptr noundef nonnull @update_local_initial_window_size_func, ptr noundef nonnull %4) #16
  call void @llvm.lifetime.end.p0(i64 16, ptr nonnull %4) #16
  %.not74 = icmp eq i32 %32, 0
  br i1 %.not74, label %.lr.ph85, label %.loopexit

.lr.ph85:                                         ; preds = %27, %26
  %33 = getelementptr inbounds nuw i8, ptr %0, i64 2656
  %34 = getelementptr inbounds nuw i8, ptr %0, i64 2652
  %35 = getelementptr inbounds nuw i8, ptr %0, i64 2648
  %36 = getelementptr inbounds nuw i8, ptr %0, i64 2644
  %37 = getelementptr inbounds nuw i8, ptr %0, i64 2640
  %38 = getelementptr inbounds nuw i8, ptr %0, i64 2636
  %39 = getelementptr inbounds nuw i8, ptr %0, i64 2632
  %40 = getelementptr inbounds nuw i8, ptr %0, i64 2628
  br label %41

41:                                               ; preds = %.lr.ph85, %68
  %.16583 = phi i64 [ 0, %.lr.ph85 ], [ %69, %68 ]
  %42 = getelementptr inbounds nuw %struct.nghttp2_settings_entry, ptr %1, i64 %.16583
  %43 = load i32, ptr %42, align 4, !tbaa !178
  switch i32 %43, label %68 [
    i32 1, label %44
    i32 2, label %47
    i32 3, label %50
    i32 4, label %53
    i32 5, label %56
    i32 6, label %59
    i32 8, label %62
    i32 9, label %65
  ]

44:                                               ; preds = %41
  %45 = getelementptr inbounds nuw i8, ptr %42, i64 4
  %46 = load i32, ptr %45, align 4, !tbaa !180
  store i32 %46, ptr %40, align 4, !tbaa !186
  br label %68

47:                                               ; preds = %41
  %48 = getelementptr inbounds nuw i8, ptr %42, i64 4
  %49 = load i32, ptr %48, align 4, !tbaa !180
  store i32 %49, ptr %39, align 4, !tbaa !187
  br label %68

50:                                               ; preds = %41
  %51 = getelementptr inbounds nuw i8, ptr %42, i64 4
  %52 = load i32, ptr %51, align 4, !tbaa !180
  store i32 %52, ptr %38, align 4, !tbaa !175
  br label %68

53:                                               ; preds = %41
  %54 = getelementptr inbounds nuw i8, ptr %42, i64 4
  %55 = load i32, ptr %54, align 4, !tbaa !180
  store i32 %55, ptr %37, align 4, !tbaa !123
  br label %68

56:                                               ; preds = %41
  %57 = getelementptr inbounds nuw i8, ptr %42, i64 4
  %58 = load i32, ptr %57, align 4, !tbaa !180
  store i32 %58, ptr %36, align 4, !tbaa !188
  br label %68

59:                                               ; preds = %41
  %60 = getelementptr inbounds nuw i8, ptr %42, i64 4
  %61 = load i32, ptr %60, align 4, !tbaa !180
  store i32 %61, ptr %35, align 4, !tbaa !189
  br label %68

62:                                               ; preds = %41
  %63 = getelementptr inbounds nuw i8, ptr %42, i64 4
  %64 = load i32, ptr %63, align 4, !tbaa !180
  store i32 %64, ptr %34, align 4, !tbaa !190
  br label %68

65:                                               ; preds = %41
  %66 = getelementptr inbounds nuw i8, ptr %42, i64 4
  %67 = load i32, ptr %66, align 4, !tbaa !180
  store i32 %67, ptr %33, align 4, !tbaa !191
  br label %68

68:                                               ; preds = %41, %44, %47, %50, %53, %56, %59, %62, %65
  %69 = add nuw i64 %.16583, 1
  %exitcond88.not = icmp eq i64 %69, %2
  br i1 %exitcond88.not, label %.loopexit, label %41, !llvm.loop !192

.loopexit:                                        ; preds = %68, %3, %27, %22, %18
  %.066 = phi i32 [ %21, %18 ], [ %25, %22 ], [ %32, %27 ], [ 0, %3 ], [ 0, %68 ]
  ret i32 %.066
}